; Function Attrs: mustprogress uwtable
define hidden noundef i32 @_ZN11bv_rewriter18mk_bvumul_overflowEjPKP4exprR7obj_refIS0_11ast_managerE(ptr noundef nonnull readonly align 8 captures(none) dereferenceable(157) %0, i32 %1, ptr noundef readonly captures(none) %2, ptr noundef nonnull align 8 captures(none) dereferenceable(16) %3) local_unnamed_addr #3 align 2 {
  %5 = load ptr, ptr %0, align 8, !tbaa !76
  %6 = getelementptr inbounds nuw i8, ptr %0, i64 8
  %7 = load ptr, ptr %2, align 8, !tbaa !67
  %8 = getelementptr inbounds nuw i8, ptr %2, i64 8
  %9 = load ptr, ptr %8, align 8, !tbaa !67
  %10 = getelementptr inbounds nuw i8, ptr %0, i64 16
  %11 = load ptr, ptr %10, align 8, !tbaa !74
  %12 = load i32, ptr %6, align 8, !tbaa !75
  %13 = tail call noundef ptr @_ZN11ast_manager6mk_appEiiP4exprS1_(ptr noundef nonnull align 8 dereferenceable(976) %11, i32 noundef %12, i32 noundef 52, ptr noundef %7, ptr noundef %9)
  %14 = tail call noundef ptr @_ZN11ast_manager6mk_appEiiP4expr(ptr noundef nonnull align 8 dereferenceable(976) %5, i32 noundef 0, i32 noundef 8, ptr noundef %13)
  %.not.i = icmp eq ptr %14, null
  br i1 %.not.i, label %18, label %_ZN11ast_manager7inc_refEP3ast.exit.i

_ZN11ast_manager7inc_refEP3ast.exit.i:            ; preds = %4
  %15 = getelementptr inbounds nuw i8, ptr %14, i64 8
  %16 = load i32, ptr %15, align 4, !tbaa !71
  %17 = add i32 %16, 1
  store i32 %17, ptr %15, align 4, !tbaa !71
  br label %18

18:                                               ; preds = %_ZN11ast_manager7inc_refEP3ast.exit.i, %4
  %19 = load ptr, ptr %3, align 8, !tbaa !72
  %.not.i4.i = icmp eq ptr %19, null
  br i1 %.not.i4.i, label %_ZN7obj_refI4expr11ast_managerEaSEPS0_.exit, label %20

20:                                               ; preds = %18
  %21 = getelementptr inbounds nuw i8, ptr %3, i64 8
  %22 = load ptr, ptr %21, align 8, !tbaa !73
  %23 = getelementptr inbounds nuw i8, ptr %19, i64 8
  %24 = load i32, ptr %23, align 4, !tbaa !71
  %25 = add i32 %24, -1
  store i32 %25, ptr %23, align 4, !tbaa !71
  %26 = icmp eq i32 %25, 0
  br i1 %26, label %27, label %_ZN7obj_refI4expr11ast_managerEaSEPS0_.exit

27:                                               ; preds = %20
  tail call void @_ZN11ast_manager11delete_nodeEP3ast(ptr noundef nonnull align 8 dereferenceable(976) %22, ptr noundef nonnull %19)
  br label %_ZN7obj_refI4expr11ast_managerEaSEPS0_.exit

_ZN7obj_refI4expr11ast_managerEaSEPS0_.exit:      ; preds = %18, %20, %27
  store ptr %14, ptr %3, align 8, !tbaa !72
  ret i32 1
}